; Function Attrs: nounwind uwtable
define range(i32 0, 2) i32 @uriRemoveDotSegmentsW(ptr noundef captures(address_is_null) %0, i32 noundef %1, ptr noundef %2) local_unnamed_addr #4 {
  %4 = icmp eq ptr %0, null
  br i1 %4, label %9, label %5

5:                                                ; preds = %3
  %6 = getelementptr inbounds nuw i8, ptr %0, i64 148
  %7 = load i32, ptr %6, align 4, !tbaa !45
  %8 = tail call i32 @uriRemoveDotSegmentsExW(ptr noundef nonnull %0, i32 noundef %1, i32 noundef %7, ptr noundef %2)
  br label %9

9:                                                ; preds = %3, %5
  %.0 = phi i32 [ %8, %5 ], [ 1, %3 ]
  ret i32 %.0
}